target datalayout = "e-m:e-p270:32:32-p271:32:32-p272:64:64-i64:64-i128:128-f80:128-n8:16:32:64-S128"
target triple = "x86_64-pc-linux-gnu"

%class.ref_vector = type { %class.ref_vector_core }
%class.ref_vector_core = type { %class.ref_manager_wrapper, %class.ptr_vector }
%class.ref_manager_wrapper = type { ptr }
%class.ptr_vector = type { %class.vector }
%class.vector = type { ptr }
%class.rational = type { %class.mpq }
%class.mpq = type { %class.mpz, %class.mpz }
%class.mpz = type { i32, i8, ptr }
%class.ref = type { ptr }
%class.svector = type { %class.vector.0 }
%class.vector.0 = type { ptr }
%class.params_ref = type { ptr }
%class.vector.28 = type { ptr }
%class.obj_map.52 = type { %class.core_hashtable.53 }
%class.core_hashtable.53 = type <{ ptr, i32, i32, i32, [4 x i8] }>
%"class.opt::maxsmt" = type { ptr, ptr, i32, %class.scoped_ptr.304, %class.vector.28, %class.obj_map.52, %class.ref_vector, %class.rational, %class.rational, %class.ref, %class.svector, %class.params_ref }
%class.scoped_ptr.304 = type { ptr }

@_ZN8rational13g_mpq_managerE = external global ptr, align 8

; Function Attrs: inlinehint mustprogress nounwind uwtable
define linkonce_odr hidden void @_ZSt4swapIP8mpz_cellENSt9enable_ifIXsr6__and_ISt6__not_ISt15__is_tuple_likeIT_EESt21is_move_constructibleIS5_ESt18is_move_assignableIS5_EEE5valueEvE4typeERS5_SE_(ptr noundef nonnull align 8 dereferenceable(8) %0, ptr noundef nonnull align 8 dereferenceable(8) %1) #7 comdat {
  %3 = alloca ptr, align 8
  %4 = alloca ptr, align 8
  %5 = alloca ptr, align 8
  store ptr %0, ptr %3, align 8, !tbaa !363
  store ptr %1, ptr %4, align 8, !tbaa !363
  call void @llvm.lifetime.start.p0(i64 8, ptr %5) #3
  %6 = load ptr, ptr %3, align 8, !tbaa !363
  %7 = load ptr, ptr %6, align 8, !tbaa !365
  store ptr %7, ptr %5, align 8, !tbaa !365
  %8 = load ptr, ptr %4, align 8, !tbaa !363
  %9 = load ptr, ptr %8, align 8, !tbaa !365
  %10 = load ptr, ptr %3, align 8, !tbaa !363
  store ptr %9, ptr %10, align 8, !tbaa !365
  %11 = load ptr, ptr %5, align 8, !tbaa !365
  %12 = load ptr, ptr %4, align 8, !tbaa !363
  store ptr %11, ptr %12, align 8, !tbaa !365
  call void @llvm.lifetime.end.p0(i64 8, ptr %5) #3
  ret void
}

; Function Attrs: inlinehint mustprogress nounwind uwtable
define linkonce_odr void @_ZSt4swapIiENSt9enable_ifIXsr6__and_ISt6__not_ISt15__is_tuple_likeIT_EESt21is_move_constructibleIS3_ESt18is_move_assignableIS3_EEE5valueEvE4typeERS3_SC_(ptr noundef nonnull align 4 dereferenceable(4) %0, ptr noundef nonnull align 4 dereferenceable(4) %1) #7 comdat {
  %3 = alloca ptr, align 8
  %4 = alloca ptr, align 8
  %5 = alloca i32, align 4
  store ptr %0, ptr %3, align 8, !tbaa !222
  store ptr %1, ptr %4, align 8, !tbaa !222
  call void @llvm.lifetime.start.p0(i64 4, ptr %5) #3
  %6 = load ptr, ptr %3, align 8, !tbaa !222
  %7 = load i32, ptr %6, align 4, !tbaa !8
  store i32 %7, ptr %5, align 4, !tbaa !8
  %8 = load ptr, ptr %4, align 8, !tbaa !222
  %9 = load i32, ptr %8, align 4, !tbaa !8
  %10 = load ptr, ptr %3, align 8, !tbaa !222
  store i32 %9, ptr %10, align 4, !tbaa !8
  %11 = load i32, ptr %5, align 4, !tbaa !8
  %12 = load ptr, ptr %4, align 8, !tbaa !222
  store i32 %11, ptr %12, align 4, !tbaa !8
  call void @llvm.lifetime.end.p0(i64 4, ptr %5) #3
  ret void
}

; Function Attrs: mustprogress nounwind uwtable
define linkonce_odr hidden void @_ZN3mpz4swapERS_(ptr noundef nonnull align 8 dereferenceable(16) %0, ptr noundef nonnull align 8 dereferenceable(16) %1) #4 comdat align 2 {
  %3 = alloca ptr, align 8
  %4 = alloca ptr, align 8
  %5 = alloca i32, align 4
  %6 = alloca i32, align 4
  store ptr %0, ptr %3, align 8, !tbaa !259
  store ptr %1, ptr %4, align 8, !tbaa !259
  %7 = load ptr, ptr %3, align 8
  %8 = getelementptr inbounds nuw %class.mpz, ptr %7, i32 0, i32 0
  %9 = load ptr, ptr %4, align 8, !tbaa !259
  %10 = getelementptr inbounds nuw %class.mpz, ptr %9, i32 0, i32 0
  call void @_ZSt4swapIiENSt9enable_ifIXsr6__and_ISt6__not_ISt15__is_tuple_likeIT_EESt21is_move_constructibleIS3_ESt18is_move_assignableIS3_EEE5valueEvE4typeERS3_SC_(ptr noundef nonnull align 4 dereferenceable(4) %8, ptr noundef nonnull align 4 dereferenceable(4) %10) #3
  %11 = getelementptr inbounds nuw %class.mpz, ptr %7, i32 0, i32 2
  %12 = load ptr, ptr %4, align 8, !tbaa !259
  %13 = getelementptr inbounds nuw %class.mpz, ptr %12, i32 0, i32 2
  call void @_ZSt4swapIP8mpz_cellENSt9enable_ifIXsr6__and_ISt6__not_ISt15__is_tuple_likeIT_EESt21is_move_constructibleIS5_ESt18is_move_assignableIS5_EEE5valueEvE4typeERS5_SE_(ptr noundef nonnull align 8 dereferenceable(8) %11, ptr noundef nonnull align 8 dereferenceable(8) %13) #3
  call void @llvm.lifetime.start.p0(i64 4, ptr %5) #3
  %14 = getelementptr inbounds nuw %class.mpz, ptr %7, i32 0, i32 1
  %15 = load i8, ptr %14, align 4
  %16 = lshr i8 %15, 1
  %17 = and i8 %16, 1
  %18 = zext i8 %17 to i32
  store i32 %18, ptr %5, align 4, !tbaa !8
  %19 = load ptr, ptr %4, align 8, !tbaa !259
  %20 = getelementptr inbounds nuw %class.mpz, ptr %19, i32 0, i32 1
  %21 = load i8, ptr %20, align 4
  %22 = lshr i8 %21, 1
  %23 = and i8 %22, 1
  %24 = zext i8 %23 to i32
  %25 = getelementptr inbounds nuw %class.mpz, ptr %7, i32 0, i32 1
  %26 = trunc i32 %24 to i8
  %27 = load i8, ptr %25, align 4
  %28 = and i8 %26, 1
  %29 = shl i8 %28, 1
  %30 = and i8 %27, -3
  %31 = or i8 %30, %29
  store i8 %31, ptr %25, align 4
  %32 = load i32, ptr %5, align 4, !tbaa !8
  %33 = load ptr, ptr %4, align 8, !tbaa !259
  %34 = getelementptr inbounds nuw %class.mpz, ptr %33, i32 0, i32 1
  %35 = trunc i32 %32 to i8
  %36 = load i8, ptr %34, align 4
  %37 = and i8 %35, 1
  %38 = shl i8 %37, 1
  %39 = and i8 %36, -3
  %40 = or i8 %39, %38
  store i8 %40, ptr %34, align 4
  call void @llvm.lifetime.start.p0(i64 4, ptr %6) #3
  %41 = getelementptr inbounds nuw %class.mpz, ptr %7, i32 0, i32 1
  %42 = load i8, ptr %41, align 4
  %43 = and i8 %42, 1
  %44 = zext i8 %43 to i32
  store i32 %44, ptr %6, align 4, !tbaa !8
  %45 = load ptr, ptr %4, align 8, !tbaa !259
  %46 = getelementptr inbounds nuw %class.mpz, ptr %45, i32 0, i32 1
  %47 = load i8, ptr %46, align 4
  %48 = and i8 %47, 1
  %49 = zext i8 %48 to i32
  %50 = getelementptr inbounds nuw %class.mpz, ptr %7, i32 0, i32 1
  %51 = trunc i32 %49 to i8
  %52 = load i8, ptr %50, align 4
  %53 = and i8 %51, 1
  %54 = and i8 %52, -2
  %55 = or i8 %54, %53
  store i8 %55, ptr %50, align 4
  %56 = load i32, ptr %6, align 4, !tbaa !8
  %57 = load ptr, ptr %4, align 8, !tbaa !259
  %58 = getelementptr inbounds nuw %class.mpz, ptr %57, i32 0, i32 1
  %59 = trunc i32 %56 to i8
  %60 = load i8, ptr %58, align 4
  %61 = and i8 %59, 1
  %62 = and i8 %60, -2
  %63 = or i8 %62, %61
  store i8 %63, ptr %58, align 4
  call void @llvm.lifetime.end.p0(i64 4, ptr %6) #3
  call void @llvm.lifetime.end.p0(i64 4, ptr %5) #3
  ret void
}

; Function Attrs: mustprogress nounwind uwtable
define linkonce_odr hidden noundef nonnull align 8 dereferenceable(16) ptr @_ZN3mpzaSEOS_(ptr noundef nonnull align 8 dereferenceable(16) %0, ptr noundef nonnull align 8 dereferenceable(16) %1) #4 comdat align 2 {
  %3 = alloca ptr, align 8
  %4 = alloca ptr, align 8
  store ptr %0, ptr %3, align 8, !tbaa !259
  store ptr %1, ptr %4, align 8, !tbaa !259
  %5 = load ptr, ptr %3, align 8
  %6 = load ptr, ptr %4, align 8, !tbaa !259
  call void @_ZN3mpz4swapERS_(ptr noundef nonnull align 8 dereferenceable(16) %5, ptr noundef nonnull align 8 dereferenceable(16) %6) #3
  ret ptr %5
}

; Function Attrs: mustprogress uwtable
define linkonce_odr hidden void @_ZN11mpq_managerILb1EE3delEPS0_R3mpq(ptr noundef %0, ptr noundef nonnull align 8 dereferenceable(32) %1) #6 comdat align 2 {
  %3 = alloca ptr, align 8
  %4 = alloca ptr, align 8
  store ptr %0, ptr %3, align 8, !tbaa !76
  store ptr %1, ptr %4, align 8, !tbaa !257
  %5 = load ptr, ptr %3, align 8, !tbaa !76
  %6 = load ptr, ptr %4, align 8, !tbaa !257
  %7 = getelementptr inbounds nuw %class.mpq, ptr %6, i32 0, i32 0
  call void @_ZN11mpz_managerILb1EE3delEPS0_R3mpz(ptr noundef %5, ptr noundef nonnull align 8 dereferenceable(16) %7)
  %8 = load ptr, ptr %3, align 8, !tbaa !76
  %9 = load ptr, ptr %4, align 8, !tbaa !257
  %10 = getelementptr inbounds nuw %class.mpq, ptr %9, i32 0, i32 1
  call void @_ZN11mpz_managerILb1EE3delEPS0_R3mpz(ptr noundef %8, ptr noundef nonnull align 8 dereferenceable(16) %10)
  ret void
}

; Function Attrs: mustprogress nounwind uwtable
define linkonce_odr hidden noundef nonnull align 8 dereferenceable(32) ptr @_ZN3mpqaSEOS_(ptr noundef nonnull align 8 dereferenceable(32) %0, ptr noundef nonnull align 8 dereferenceable(32) %1) #4 comdat align 2 {
  %3 = alloca ptr, align 8
  %4 = alloca ptr, align 8
  store ptr %0, ptr %3, align 8, !tbaa !257
  store ptr %1, ptr %4, align 8, !tbaa !257
  %5 = load ptr, ptr %3, align 8
  %6 = getelementptr inbounds nuw %class.mpq, ptr %5, i32 0, i32 0
  %7 = load ptr, ptr %4, align 8, !tbaa !257
  %8 = getelementptr inbounds nuw %class.mpq, ptr %7, i32 0, i32 0
  %9 = call noundef nonnull align 8 dereferenceable(16) ptr @_ZN3mpzaSEOS_(ptr noundef nonnull align 8 dereferenceable(16) %6, ptr noundef nonnull align 8 dereferenceable(16) %8) #3
  %10 = getelementptr inbounds nuw %class.mpq, ptr %5, i32 0, i32 1
  %11 = load ptr, ptr %4, align 8, !tbaa !257
  %12 = getelementptr inbounds nuw %class.mpq, ptr %11, i32 0, i32 1
  %13 = call noundef nonnull align 8 dereferenceable(16) ptr @_ZN3mpzaSEOS_(ptr noundef nonnull align 8 dereferenceable(16) %10, ptr noundef nonnull align 8 dereferenceable(16) %12) #3
  ret ptr %5
}

; Function Attrs: mustprogress nounwind uwtable
define linkonce_odr hidden void @_ZN8rationalD2Ev(ptr noundef nonnull align 8 dereferenceable(32) %0) unnamed_addr #4 comdat align 2 personality ptr @__gxx_personality_v0 {
  %2 = alloca ptr, align 8
  store ptr %0, ptr %2, align 8, !tbaa !64
  %3 = load ptr, ptr %2, align 8
  %4 = load ptr, ptr @_ZN8rational13g_mpq_managerE, align 8, !tbaa !76
  %5 = getelementptr inbounds nuw %class.rational, ptr %3, i32 0, i32 0
  invoke void @_ZN11mpq_managerILb1EE3delEPS0_R3mpq(ptr noundef %4, ptr noundef nonnull align 8 dereferenceable(32) %5)
          to label %6 unwind label %7

6:                                                ; preds = %1
  ret void

7:                                                ; preds = %1
  %8 = landingpad { ptr, i32 }
          catch ptr null
  %9 = extractvalue { ptr, i32 } %8, 0
  call void @__clang_call_terminate(ptr %9) #22
  unreachable
}

; Function Attrs: mustprogress nounwind uwtable
define linkonce_odr hidden noundef nonnull align 8 dereferenceable(32) ptr @_ZN8rationalaSEOS_(ptr noundef nonnull align 8 dereferenceable(32) %0, ptr noundef nonnull align 8 dereferenceable(32) %1) #4 comdat align 2 {
  %3 = alloca ptr, align 8
  %4 = alloca ptr, align 8
  store ptr %0, ptr %3, align 8, !tbaa !64
  store ptr %1, ptr %4, align 8, !tbaa !64
  %5 = load ptr, ptr %3, align 8
  %6 = getelementptr inbounds nuw %class.rational, ptr %5, i32 0, i32 0
  %7 = load ptr, ptr %4, align 8, !tbaa !64
  %8 = getelementptr inbounds nuw %class.rational, ptr %7, i32 0, i32 0
  %9 = call noundef nonnull align 8 dereferenceable(32) ptr @_ZN3mpqaSEOS_(ptr noundef nonnull align 8 dereferenceable(32) %6, ptr noundef nonnull align 8 dereferenceable(32) %8) #3
  ret ptr %5
}

; Function Attrs: mustprogress nounwind uwtable
define linkonce_odr hidden noundef ptr @_ZNK10scoped_ptrIN3opt18maxsmt_solver_baseEEptEv(ptr noundef nonnull align 8 dereferenceable(8) %0) #4 comdat align 2 {
  %2 = alloca ptr, align 8
  store ptr %0, ptr %2, align 8, !tbaa !204
  %3 = load ptr, ptr %2, align 8
  %4 = getelementptr inbounds nuw %class.scoped_ptr.304, ptr %3, i32 0, i32 0
  %5 = load ptr, ptr %4, align 8, !tbaa !206
  ret ptr %5
}

; Function Attrs: mustprogress nounwind uwtable
define linkonce_odr hidden noundef zeroext i1 @_ZNK10scoped_ptrIN3opt18maxsmt_solver_baseEEcvbEv(ptr noundef nonnull align 8 dereferenceable(8) %0) #4 comdat align 2 {
  %2 = alloca ptr, align 8
  store ptr %0, ptr %2, align 8, !tbaa !204
  %3 = load ptr, ptr %2, align 8
  %4 = getelementptr inbounds nuw %class.scoped_ptr.304, ptr %3, i32 0, i32 0
  %5 = load ptr, ptr %4, align 8, !tbaa !206
  %6 = icmp ne ptr %5, null
  ret i1 %6
}

; Function Attrs: mustprogress uwtable
define hidden void @_ZN3opt6maxsmt11reset_upperEv(ptr noundef nonnull align 8 dereferenceable(168) %0) #6 align 2 {
  %2 = alloca ptr, align 8
  %3 = alloca %class.rational, align 8
  store ptr %0, ptr %2, align 8, !tbaa !195
  %4 = load ptr, ptr %2, align 8
  %5 = getelementptr inbounds nuw %"class.opt::maxsmt", ptr %4, i32 0, i32 3
  %6 = call noundef zeroext i1 @_ZNK10scoped_ptrIN3opt18maxsmt_solver_baseEEcvbEv(ptr noundef nonnull align 8 dereferenceable(8) %5)
  br i1 %6, label %7, label %17

7:                                                ; preds = %1
  %8 = getelementptr inbounds nuw %"class.opt::maxsmt", ptr %4, i32 0, i32 3
  %9 = call noundef ptr @_ZNK10scoped_ptrIN3opt18maxsmt_solver_baseEEptEv(ptr noundef nonnull align 8 dereferenceable(8) %8)
  call void @_ZN3opt18maxsmt_solver_base11reset_upperEv(ptr noundef nonnull align 8 dereferenceable(160) %9)
  call void @llvm.lifetime.start.p0(i64 32, ptr %3) #3
  %10 = getelementptr inbounds nuw %"class.opt::maxsmt", ptr %4, i32 0, i32 3
  %11 = call noundef ptr @_ZNK10scoped_ptrIN3opt18maxsmt_solver_baseEEptEv(ptr noundef nonnull align 8 dereferenceable(8) %10)
  %12 = load ptr, ptr %11, align 8, !tbaa !34
  %13 = getelementptr inbounds ptr, ptr %12, i64 4
  %14 = load ptr, ptr %13, align 8
  call void %14(ptr dead_on_unwind writable sret(%class.rational) align 8 %3, ptr noundef nonnull align 8 dereferenceable(160) %11)
  %15 = getelementptr inbounds nuw %"class.opt::maxsmt", ptr %4, i32 0, i32 8
  %16 = call noundef nonnull align 8 dereferenceable(32) ptr @_ZN8rationalaSEOS_(ptr noundef nonnull align 8 dereferenceable(32) %15, ptr noundef nonnull align 8 dereferenceable(32) %3) #3
  call void @_ZN8rationalD2Ev(ptr noundef nonnull align 8 dereferenceable(32) %3) #3
  call void @llvm.lifetime.end.p0(i64 32, ptr %3) #3
  br label %17

17:                                               ; preds = %7, %1
  ret void
}