; Function Attrs: mustprogress uwtable
define hidden void @_ZN3opt6maxsmt11reset_upperEv(ptr noundef nonnull align 8 captures(none) dereferenceable(168) %0) local_unnamed_addr #4 align 2 personality ptr @__gxx_personality_v0 {
  %2 = alloca %class.rational, align 8
  %3 = getelementptr inbounds nuw i8, ptr %0, i64 24
  %4 = load ptr, ptr %3, align 8, !tbaa !210
  %.not = icmp eq ptr %4, null
  br i1 %.not, label %49, label %5

5:                                                ; preds = %1
  tail call void @_ZN3opt18maxsmt_solver_base11reset_upperEv(ptr noundef nonnull align 8 dereferenceable(160) %4)
  call void @llvm.lifetime.start.p0(i64 32, ptr nonnull %2) #25
  %6 = load ptr, ptr %3, align 8, !tbaa !210
  %7 = load ptr, ptr %6, align 8, !tbaa !3
  %8 = getelementptr inbounds nuw i8, ptr %7, i64 32
  %9 = load ptr, ptr %8, align 8
  call void %9(ptr dead_on_unwind nonnull writable sret(%class.rational) align 8 %2, ptr noundef nonnull align 8 dereferenceable(160) %6)
  %10 = getelementptr inbounds nuw i8, ptr %0, i64 112
  %11 = load i32, ptr %10, align 8, !tbaa !54
  %12 = load i32, ptr %2, align 8, !tbaa !54
  store i32 %12, ptr %10, align 8, !tbaa !54
  store i32 %11, ptr %2, align 8, !tbaa !54
  %13 = getelementptr inbounds nuw i8, ptr %0, i64 120
  %14 = getelementptr inbounds nuw i8, ptr %2, i64 8
  %15 = load ptr, ptr %13, align 8, !tbaa !181
  %16 = load ptr, ptr %14, align 8, !tbaa !181
  store ptr %16, ptr %13, align 8, !tbaa !181
  store ptr %15, ptr %14, align 8, !tbaa !181
  %17 = getelementptr inbounds nuw i8, ptr %0, i64 116
  %18 = load i8, ptr %17, align 4
  %19 = getelementptr inbounds nuw i8, ptr %2, i64 4
  %20 = load i8, ptr %19, align 4
  %21 = and i8 %18, -4
  %22 = and i8 %20, -4
  %23 = and i8 %20, 3
  %24 = or disjoint i8 %23, %21
  store i8 %24, ptr %17, align 4
  %25 = and i8 %18, 3
  %26 = or disjoint i8 %22, %25
  store i8 %26, ptr %19, align 4
  %27 = getelementptr inbounds nuw i8, ptr %0, i64 128
  %28 = getelementptr inbounds nuw i8, ptr %2, i64 16
  %29 = load i32, ptr %27, align 8, !tbaa !54
  %30 = load i32, ptr %28, align 8, !tbaa !54
  store i32 %30, ptr %27, align 8, !tbaa !54
  store i32 %29, ptr %28, align 8, !tbaa !54
  %31 = getelementptr inbounds nuw i8, ptr %0, i64 136
  %32 = getelementptr inbounds nuw i8, ptr %2, i64 24
  %33 = load ptr, ptr %31, align 8, !tbaa !181
  %34 = load ptr, ptr %32, align 8, !tbaa !181
  store ptr %34, ptr %31, align 8, !tbaa !181
  store ptr %33, ptr %32, align 8, !tbaa !181
  %35 = getelementptr inbounds nuw i8, ptr %0, i64 132
  %36 = load i8, ptr %35, align 4
  %37 = getelementptr inbounds nuw i8, ptr %2, i64 20
  %38 = load i8, ptr %37, align 4
  %39 = and i8 %36, -4
  %40 = and i8 %38, -4
  %41 = and i8 %38, 3
  %42 = or disjoint i8 %41, %39
  store i8 %42, ptr %35, align 4
  %43 = and i8 %36, 3
  %44 = or disjoint i8 %40, %43
  store i8 %44, ptr %37, align 4
  %45 = load ptr, ptr @_ZN8rational13g_mpq_managerE, align 8, !tbaa !52
  invoke void @_ZN11mpz_managerILb1EE3delEPS0_R3mpz(ptr noundef %45, ptr noundef nonnull align 8 dereferenceable(32) %2)
          to label %.noexc.i unwind label %46

.noexc.i:                                         ; preds = %5
  invoke void @_ZN11mpz_managerILb1EE3delEPS0_R3mpz(ptr noundef %45, ptr noundef nonnull align 8 dereferenceable(16) %28)
          to label %_ZN8rationalD2Ev.exit unwind label %46

46:                                               ; preds = %.noexc.i, %5
  %47 = landingpad { ptr, i32 }
          catch ptr null
  %48 = extractvalue { ptr, i32 } %47, 0
  call void @__clang_call_terminate(ptr %48) #26
  unreachable

_ZN8rationalD2Ev.exit:                            ; preds = %.noexc.i
  call void @llvm.lifetime.end.p0(i64 32, ptr nonnull %2) #25
  br label %49

49:                                               ; preds = %_ZN8rationalD2Ev.exit, %1
  ret void
}